target datalayout = "e-m:e-p270:32:32-p271:32:32-p272:64:64-i64:64-i128:128-f80:128-n8:16:32:64-S128"
target triple = "x86_64-pc-linux-gnu"

%struct.epan_plugin = type { ptr, ptr, ptr, ptr, ptr, ptr, ptr, ptr }

@epan_plugins = internal global ptr null, align 8
@epan_plugin_register_all_procotols = internal global ptr null, align 8
@epan_plugin_register_all_handoffs = internal global ptr null, align 8

; Function Attrs: null_pointer_is_valid sspstrong uwtable
define void @epan_register_plugin(ptr noundef %0) #5 {
  %2 = alloca ptr, align 8
  store ptr %0, ptr %2, align 8
  %3 = load ptr, ptr @epan_plugins, align 8
  %4 = load ptr, ptr %2, align 8
  %5 = call ptr @g_slist_prepend(ptr noundef %3, ptr noundef %4)
  store ptr %5, ptr @epan_plugins, align 8
  %6 = load ptr, ptr %2, align 8
  %7 = getelementptr inbounds nuw %struct.epan_plugin, ptr %6, i32 0, i32 5
  %8 = load ptr, ptr %7, align 8
  %9 = icmp ne ptr %8, null
  br i1 %9, label %10, label %16

10:                                               ; preds = %1
  %11 = load ptr, ptr @epan_plugin_register_all_procotols, align 8
  %12 = load ptr, ptr %2, align 8
  %13 = getelementptr inbounds nuw %struct.epan_plugin, ptr %12, i32 0, i32 5
  %14 = load ptr, ptr %13, align 8
  %15 = call ptr @g_slist_prepend(ptr noundef %11, ptr noundef %14)
  store ptr %15, ptr @epan_plugin_register_all_procotols, align 8
  br label %16

16:                                               ; preds = %10, %1
  %17 = load ptr, ptr %2, align 8
  %18 = getelementptr inbounds nuw %struct.epan_plugin, ptr %17, i32 0, i32 6
  %19 = load ptr, ptr %18, align 8
  %20 = icmp ne ptr %19, null
  br i1 %20, label %21, label %27

21:                                               ; preds = %16
  %22 = load ptr, ptr @epan_plugin_register_all_handoffs, align 8
  %23 = load ptr, ptr %2, align 8
  %24 = getelementptr inbounds nuw %struct.epan_plugin, ptr %23, i32 0, i32 6
  %25 = load ptr, ptr %24, align 8
  %26 = call ptr @g_slist_prepend(ptr noundef %22, ptr noundef %25)
  store ptr %26, ptr @epan_plugin_register_all_handoffs, align 8
  br label %27

27:                                               ; preds = %21, %16
  ret void
}