; Function Attrs: null_pointer_is_valid sspstrong uwtable
define void @epan_register_plugin(ptr noundef %0) local_unnamed_addr #6 {
  %2 = load ptr, ptr @epan_plugins, align 8
  %3 = tail call ptr @g_slist_prepend(ptr noundef %2, ptr noundef %0)
  store ptr %3, ptr @epan_plugins, align 8
  %4 = getelementptr inbounds nuw i8, ptr %0, i64 40
  %5 = load ptr, ptr %4, align 8
  %.not = icmp eq ptr %5, null
  br i1 %.not, label %9, label %6

6:                                                ; preds = %1
  %7 = load ptr, ptr @epan_plugin_register_all_procotols, align 8
  %8 = tail call ptr @g_slist_prepend(ptr noundef %7, ptr noundef nonnull %5)
  store ptr %8, ptr @epan_plugin_register_all_procotols, align 8
  br label %9

9:                                                ; preds = %6, %1
  %10 = getelementptr inbounds nuw i8, ptr %0, i64 48
  %11 = load ptr, ptr %10, align 8
  %.not6 = icmp eq ptr %11, null
  br i1 %.not6, label %15, label %12

12:                                               ; preds = %9
  %13 = load ptr, ptr @epan_plugin_register_all_handoffs, align 8
  %14 = tail call ptr @g_slist_prepend(ptr noundef %13, ptr noundef nonnull %11)
  store ptr %14, ptr @epan_plugin_register_all_handoffs, align 8
  br label %15

15:                                               ; preds = %12, %9
  ret void
}